; Function Attrs: mustprogress uwtable
define void @_ZN30MLRenderingEdgeDecoratorActionC2EiP7QObject(ptr noundef nonnull align 8 dereferenceable(16) %0, i32 noundef %1, ptr noundef %2) unnamed_addr #9 align 2 personality ptr @__gxx_personality_v0 {
  %4 = alloca %class.QIcon, align 8
  %5 = alloca %class.QString, align 8
  %6 = alloca %class.QString, align 8
  tail call void @_ZN17MLRenderingActionC2EiP7QObject(ptr noundef nonnull align 8 dereferenceable(16) %0, i32 noundef %1, ptr noundef %2)
  store ptr getelementptr inbounds ({ [19 x ptr] }, ptr @_ZTV30MLRenderingEdgeDecoratorAction, i64 0, i32 0, i64 2), ptr %0, align 8
  %7 = invoke noundef ptr @_ZN7QString16fromAscii_helperEPKci(ptr noundef nonnull @.str.39, i32 noundef 19)
          to label %8 unwind label %22

8:                                                ; preds = %3
  store ptr %7, ptr %5, align 8
  invoke void @_ZN5QIconC1ERK7QString(ptr noundef nonnull align 8 dereferenceable(8) %4, ptr noundef nonnull align 8 dereferenceable(8) %5)
          to label %9 unwind label %24

9:                                                ; preds = %8
  invoke void @_ZN7QAction7setIconERK5QIcon(ptr noundef nonnull align 8 dereferenceable(16) %0, ptr noundef nonnull align 8 dereferenceable(8) %4)
          to label %10 unwind label %26

10:                                               ; preds = %9
  call void @_ZN5QIconD1Ev(ptr noundef nonnull align 8 dereferenceable(8) %4) #21
  %11 = load ptr, ptr %5, align 8
  %12 = load atomic i32, ptr %11 monotonic, align 4
  switch i32 %12, label %_ZN9QtPrivate8RefCount5derefEv.exit.i [
    i32 0, label %_ZN9QtPrivate8RefCount5derefEv.exit.thread2.i
    i32 -1, label %_ZN7QStringD2Ev.exit
  ]

_ZN9QtPrivate8RefCount5derefEv.exit.i:            ; preds = %10
  %13 = atomicrmw sub ptr %11, i32 1 seq_cst, align 4
  %.not.i = icmp eq i32 %13, 1
  br i1 %.not.i, label %_ZN9QtPrivate8RefCount5derefEv.exit._ZN9QtPrivate8RefCount5derefEv.exit.thread2_crit_edge.i, label %_ZN7QStringD2Ev.exit

_ZN9QtPrivate8RefCount5derefEv.exit._ZN9QtPrivate8RefCount5derefEv.exit.thread2_crit_edge.i: ; preds = %_ZN9QtPrivate8RefCount5derefEv.exit.i
  %.pre.i = load ptr, ptr %5, align 8
  br label %_ZN9QtPrivate8RefCount5derefEv.exit.thread2.i

_ZN9QtPrivate8RefCount5derefEv.exit.thread2.i:    ; preds = %_ZN9QtPrivate8RefCount5derefEv.exit._ZN9QtPrivate8RefCount5derefEv.exit.thread2_crit_edge.i, %10
  %14 = phi ptr [ %.pre.i, %_ZN9QtPrivate8RefCount5derefEv.exit._ZN9QtPrivate8RefCount5derefEv.exit.thread2_crit_edge.i ], [ %11, %10 ]
  call void @_ZN10QArrayData10deallocateEPS_mm(ptr noundef %14, i64 noundef 2, i64 noundef 8) #21
  br label %_ZN7QStringD2Ev.exit

_ZN7QStringD2Ev.exit:                             ; preds = %10, %_ZN9QtPrivate8RefCount5derefEv.exit.i, %_ZN9QtPrivate8RefCount5derefEv.exit.thread2.i
  %15 = invoke noundef ptr @_ZN7QString16fromAscii_helperEPKci(ptr noundef nonnull @.str.40, i32 noundef 15)
          to label %16 unwind label %22

16:                                               ; preds = %_ZN7QStringD2Ev.exit
  store ptr %15, ptr %6, align 8
  invoke void @_ZN7QAction7setTextERK7QString(ptr noundef nonnull align 8 dereferenceable(16) %0, ptr noundef nonnull align 8 dereferenceable(8) %6)
          to label %17 unwind label %29

17:                                               ; preds = %16
  %18 = load ptr, ptr %6, align 8
  %19 = load atomic i32, ptr %18 monotonic, align 4
  switch i32 %19, label %_ZN9QtPrivate8RefCount5derefEv.exit.i11 [
    i32 0, label %_ZN9QtPrivate8RefCount5derefEv.exit.thread2.i10
    i32 -1, label %_ZN7QStringD2Ev.exit15
  ]

_ZN9QtPrivate8RefCount5derefEv.exit.i11:          ; preds = %17
  %20 = atomicrmw sub ptr %18, i32 1 seq_cst, align 4
  %.not.i12 = icmp eq i32 %20, 1
  br i1 %.not.i12, label %_ZN9QtPrivate8RefCount5derefEv.exit._ZN9QtPrivate8RefCount5derefEv.exit.thread2_crit_edge.i13, label %_ZN7QStringD2Ev.exit15

_ZN9QtPrivate8RefCount5derefEv.exit._ZN9QtPrivate8RefCount5derefEv.exit.thread2_crit_edge.i13: ; preds = %_ZN9QtPrivate8RefCount5derefEv.exit.i11
  %.pre.i14 = load ptr, ptr %6, align 8
  br label %_ZN9QtPrivate8RefCount5derefEv.exit.thread2.i10

_ZN9QtPrivate8RefCount5derefEv.exit.thread2.i10:  ; preds = %_ZN9QtPrivate8RefCount5derefEv.exit._ZN9QtPrivate8RefCount5derefEv.exit.thread2_crit_edge.i13, %17
  %21 = phi ptr [ %.pre.i14, %_ZN9QtPrivate8RefCount5derefEv.exit._ZN9QtPrivate8RefCount5derefEv.exit.thread2_crit_edge.i13 ], [ %18, %17 ]
  call void @_ZN10QArrayData10deallocateEPS_mm(ptr noundef %21, i64 noundef 2, i64 noundef 8) #21
  br label %_ZN7QStringD2Ev.exit15

_ZN7QStringD2Ev.exit15:                           ; preds = %17, %_ZN9QtPrivate8RefCount5derefEv.exit.i11, %_ZN9QtPrivate8RefCount5derefEv.exit.thread2.i10
  ret void

22:                                               ; preds = %_ZN7QStringD2Ev.exit, %3
  %23 = landingpad { ptr, i32 }
          cleanup
  br label %31

24:                                               ; preds = %8
  %25 = landingpad { ptr, i32 }
          cleanup
  br label %28

26:                                               ; preds = %9
  %27 = landingpad { ptr, i32 }
          cleanup
  call void @_ZN5QIconD1Ev(ptr noundef nonnull align 8 dereferenceable(8) %4) #21
  br label %28

28:                                               ; preds = %26, %24
  %.pn = phi { ptr, i32 } [ %27, %26 ], [ %25, %24 ]
  call void @_ZN7QStringD2Ev(ptr noundef nonnull align 8 dereferenceable(8) %5) #21
  br label %31

29:                                               ; preds = %16
  %30 = landingpad { ptr, i32 }
          cleanup
  call void @_ZN7QStringD2Ev(ptr noundef nonnull align 8 dereferenceable(8) %6) #21
  br label %31

31:                                               ; preds = %29, %28, %22
  %.pn7 = phi { ptr, i32 } [ %30, %29 ], [ %23, %22 ], [ %.pn, %28 ]
  call void @_ZN7QActionD2Ev(ptr noundef nonnull align 8 dereferenceable(16) %0) #21
  resume { ptr, i32 } %.pn7
}